; Function Attrs: mustprogress nounwind uwtable
define dso_local void @_ZN27cmExtraSublimeTextGeneratorC2Ev(ptr noundef nonnull align 8 dereferenceable(112) %0) unnamed_addr #4 align 2 {
  store ptr getelementptr inbounds ({ [8 x ptr] }, ptr @_ZTV34cmExternalMakefileProjectGenerator, i64 0, i32 0, i64 2), ptr %0, align 8
  %2 = getelementptr inbounds i8, ptr %0, i64 8
  %3 = getelementptr inbounds i8, ptr %0, i64 40
  tail call void @llvm.memset.p0.i64(ptr noundef nonnull align 8 dereferenceable(32) %2, i8 0, i64 32, i1 false)
  tail call void @_ZNSt7__cxx1112basic_stringIcSt11char_traitsIcESaIcEEC1Ev(ptr noundef nonnull align 8 dereferenceable(32) %3) #17
  store ptr getelementptr inbounds ({ [8 x ptr] }, ptr @_ZTV27cmExtraSublimeTextGenerator, i64 0, i32 0, i64 2), ptr %0, align 8
  %4 = getelementptr inbounds i8, ptr %0, i64 80
  tail call void @_ZNSt7__cxx1112basic_stringIcSt11char_traitsIcESaIcEEC1Ev(ptr noundef nonnull align 8 dereferenceable(32) %4) #17
  %5 = getelementptr inbounds i8, ptr %0, i64 72
  store i8 0, ptr %5, align 8
  ret void
}